target datalayout = "e-m:e-p270:32:32-p271:32:32-p272:64:64-i64:64-i128:128-f80:128-n8:16:32:64-S128"
target triple = "x86_64-pc-linux-gnu"

%class.AbsSeq = type { ptr, i32, double, double, double, double, double }
%class.ZLock = type { %class.PlatformMutex }
%class.PlatformMutex = type { %union.pthread_mutex_t }
%union.pthread_mutex_t = type { %struct.__pthread_mutex_s }
%struct.__pthread_mutex_s = type { i32, i32, i32, i32, i32, i16, i16, %struct.__pthread_internal_list }
%struct.__pthread_internal_list = type { ptr, ptr }
%class.ZStatHeap = type { %class.ZLock, %"struct.ZStatHeap::ZAtGenerationCollectionStart", %"struct.ZStatHeap::ZAtMarkStart", %"struct.ZStatHeap::ZAtMarkEnd", %"struct.ZStatHeap::ZAtRelocateStart", %"struct.ZStatHeap::ZAtRelocateEnd", %class.NumberSeq }
%"struct.ZStatHeap::ZAtGenerationCollectionStart" = type { i64, i64, i64, i64, i64 }
%"struct.ZStatHeap::ZAtMarkStart" = type { i64, i64, i64, i64, i64, i64 }
%"struct.ZStatHeap::ZAtMarkEnd" = type { i64, i64, i64, i64, i64, i64, i64, i64 }
%"struct.ZStatHeap::ZAtRelocateStart" = type { i64, i64, i64, i64, i64, i64, i64, i64, i64, i64, i64 }
%"struct.ZStatHeap::ZAtRelocateEnd" = type { i64, i64, i64, i64, i64, i64, i64, i64, i64, i64, i64, i64, i64, i64, i64, i64, i64 }
%class.NumberSeq = type { %class.AbsSeq, double, double }

; Function Attrs: mustprogress nounwind uwtable
define linkonce_odr hidden void @_ZN5ZLockC2Ev(ptr noundef nonnull align 8 dereferenceable(40) %0) unnamed_addr #1 comdat align 2 {
  %2 = alloca ptr, align 8
  store ptr %0, ptr %2, align 8
  %3 = load ptr, ptr %2, align 8
  %4 = getelementptr inbounds %class.ZLock, ptr %3, i32 0, i32 0
  call void @_ZN13PlatformMutexC1Ev(ptr noundef nonnull align 8 dereferenceable(40) %4)
  ret void
}

; Function Attrs: mustprogress nounwind uwtable
define hidden void @_ZN9ZStatHeapC2Ev(ptr noundef nonnull align 8 dereferenceable(488) %0) unnamed_addr #1 align 2 {
  %2 = alloca ptr, align 8
  store ptr %0, ptr %2, align 8
  %3 = load ptr, ptr %2, align 8
  %4 = getelementptr inbounds %class.ZStatHeap, ptr %3, i32 0, i32 0
  call void @llvm.memset.p0.i64(ptr align 8 %4, i8 0, i64 40, i1 false)
  call void @_ZN5ZLockC2Ev(ptr noundef nonnull align 8 dereferenceable(40) %4)
  %5 = getelementptr inbounds %class.ZStatHeap, ptr %3, i32 0, i32 1
  call void @llvm.memset.p0.i64(ptr align 8 %5, i8 0, i64 40, i1 false)
  %6 = getelementptr inbounds %class.ZStatHeap, ptr %3, i32 0, i32 2
  call void @llvm.memset.p0.i64(ptr align 8 %6, i8 0, i64 48, i1 false)
  %7 = getelementptr inbounds %class.ZStatHeap, ptr %3, i32 0, i32 3
  call void @llvm.memset.p0.i64(ptr align 8 %7, i8 0, i64 64, i1 false)
  %8 = getelementptr inbounds %class.ZStatHeap, ptr %3, i32 0, i32 4
  call void @llvm.memset.p0.i64(ptr align 8 %8, i8 0, i64 88, i1 false)
  %9 = getelementptr inbounds %class.ZStatHeap, ptr %3, i32 0, i32 5
  call void @llvm.memset.p0.i64(ptr align 8 %9, i8 0, i64 136, i1 false)
  %10 = getelementptr inbounds %class.ZStatHeap, ptr %3, i32 0, i32 6
  call void @_ZN9NumberSeqC1Ed(ptr noundef nonnull align 8 dereferenceable(72) %10, double noundef 0x3FE6666666666666)
  ret void
}