; Function Attrs: mustprogress nounwind uwtable
define hidden void @_ZN9ZStatHeapC2Ev(ptr noundef nonnull align 8 dereferenceable(488) %0) unnamed_addr #0 align 2 {
  tail call void @llvm.memset.p0.i64(ptr noundef nonnull align 8 dereferenceable(40) %0, i8 0, i64 40, i1 false)
  tail call void @_ZN13PlatformMutexC1Ev(ptr noundef nonnull align 8 dereferenceable(40) %0) #20
  %2 = getelementptr inbounds i8, ptr %0, i64 40
  %3 = getelementptr inbounds i8, ptr %0, i64 416
  tail call void @llvm.memset.p0.i64(ptr noundef nonnull align 8 dereferenceable(376) %2, i8 0, i64 376, i1 false)
  tail call void @_ZN9NumberSeqC1Ed(ptr noundef nonnull align 8 dereferenceable(72) %3, double noundef 0x3FE6666666666666) #20
  ret void
}